target datalayout = "e-m:e-p270:32:32-p271:32:32-p272:64:64-i64:64-i128:128-f80:128-n8:16:32:64-S128"
target triple = "x86_64-pc-linux-gnu"

%struct._asn1_ctx_t = type { i32, i32, i8, ptr, ptr, ptr, ptr, ptr, %struct.anon, %struct.anon.2, %struct.anon.3, ptr }
%struct.anon = type { i32, i8, i8, i8, ptr, ptr, i32, i32, ptr, ptr, ptr, %union.anon }
%union.anon = type { %struct.anon.0 }
%struct.anon.0 = type { ptr }
%struct.anon.2 = type { ptr, ptr, ptr }
%struct.anon.3 = type { i32, i8, ptr, i32, i32, ptr, ptr, ptr, %union.anon.4 }
%union.anon.4 = type { %struct.anon.5 }
%struct.anon.5 = type { ptr }
%struct._packet_info = type { ptr, ptr, i32, i32, %struct.nstime_t, %struct.nstime_t, %struct.nstime_t, i8, ptr, ptr, ptr, ptr, %struct._address, %struct._address, %struct._address, %struct._address, %struct._address, %struct._address, i32, ptr, i8, [3 x i8], %struct.anon.7, i32, i32, i32, i32, ptr, i8, ptr, ptr, i16, i16, i32, i32, i16, i32, i32, ptr, ptr, ptr, i8, i8, i16, i16, i16, i32, i16, i16, ptr, ptr, ptr, ptr, ptr, i32, i32 }
%struct.nstime_t = type { i64, i32 }
%struct._address = type { i32, i32, ptr, ptr }
%struct.anon.7 = type { i8, [3 x i8] }
%struct.ngap_private_data = type { ptr, i32, i32, i32, i32, i32, i8, i8, i8, ptr, ptr, i32, i32, i8, ptr }

@proto_json = internal global i32 0, align 4
@proto_ngap = internal global i32 0, align 4
@hf_ngap_TargetToSource_TransparentContainer_PDU = internal global i32 0, align 4
@.str.885 = private unnamed_addr constant [36 x i8] c"TargetToSource-TransparentContainer\00", align 1
@ett_ngap_TargetToSource_TransparentContainer = internal global i32 0, align 4
@ngap_dissect_container = internal global i8 1, align 1

; Function Attrs: null_pointer_is_valid sspstrong uwtable
define internal ptr @ngap_get_private_data(ptr noundef %0) #0 {
  %2 = alloca ptr, align 8
  %3 = alloca ptr, align 8
  store ptr %0, ptr %2, align 8
  call void @llvm.lifetime.start.p0(i64 8, ptr %3) #11
  %4 = load ptr, ptr %2, align 8
  %5 = getelementptr inbounds nuw %struct._packet_info, ptr %4, i32 0, i32 51
  %6 = load ptr, ptr %5, align 8
  %7 = load ptr, ptr %2, align 8
  %8 = load i32, ptr @proto_ngap, align 4
  %9 = call ptr @p_get_proto_data(ptr noundef %6, ptr noundef %7, i32 noundef %8, i32 noundef 0)
  store ptr %9, ptr %3, align 8
  %10 = load ptr, ptr %3, align 8
  %11 = icmp ne ptr %10, null
  br i1 %11, label %27, label %12

12:                                               ; preds = %1
  %13 = load ptr, ptr %2, align 8
  %14 = getelementptr inbounds nuw %struct._packet_info, ptr %13, i32 0, i32 51
  %15 = load ptr, ptr %14, align 8
  %16 = call noalias ptr @wmem_alloc0(ptr noundef %15, i64 noundef 72) #12
  store ptr %16, ptr %3, align 8
  %17 = load ptr, ptr %3, align 8
  %18 = getelementptr inbounds nuw %struct.ngap_private_data, ptr %17, i32 0, i32 5
  store i32 -1, ptr %18, align 8
  %19 = load ptr, ptr %3, align 8
  %20 = getelementptr inbounds nuw %struct.ngap_private_data, ptr %19, i32 0, i32 13
  store i8 -1, ptr %20, align 8
  %21 = load ptr, ptr %2, align 8
  %22 = getelementptr inbounds nuw %struct._packet_info, ptr %21, i32 0, i32 51
  %23 = load ptr, ptr %22, align 8
  %24 = load ptr, ptr %2, align 8
  %25 = load i32, ptr @proto_ngap, align 4
  %26 = load ptr, ptr %3, align 8
  call void @p_add_proto_data(ptr noundef %23, ptr noundef %24, i32 noundef %25, i32 noundef 0, ptr noundef %26)
  br label %27

27:                                               ; preds = %12, %1
  %28 = load ptr, ptr %3, align 8
  call void @llvm.lifetime.end.p0(i64 8, ptr %3) #11
  ret ptr %28
}

; Function Attrs: null_pointer_is_valid sspstrong uwtable
define internal i32 @dissect_ngap_TargetToSource_TransparentContainer(ptr noundef %0, i32 noundef %1, ptr noundef %2, ptr noundef %3, i32 noundef %4) #0 {
  %6 = alloca ptr, align 8
  %7 = alloca i32, align 4
  %8 = alloca ptr, align 8
  %9 = alloca ptr, align 8
  %10 = alloca i32, align 4
  %11 = alloca ptr, align 8
  %12 = alloca ptr, align 8
  %13 = alloca ptr, align 8
  %14 = alloca ptr, align 8
  store ptr %0, ptr %6, align 8
  store i32 %1, ptr %7, align 4
  store ptr %2, ptr %8, align 8
  store ptr %3, ptr %9, align 8
  store i32 %4, ptr %10, align 4
  call void @llvm.lifetime.start.p0(i64 8, ptr %11) #11
  %15 = load ptr, ptr %8, align 8
  %16 = getelementptr inbounds nuw %struct._asn1_ctx_t, ptr %15, i32 0, i32 3
  %17 = load ptr, ptr %16, align 8
  %18 = getelementptr inbounds nuw %struct._packet_info, ptr %17, i32 0, i32 51
  %19 = load ptr, ptr %18, align 8
  %20 = load ptr, ptr %8, align 8
  %21 = getelementptr inbounds nuw %struct._asn1_ctx_t, ptr %20, i32 0, i32 3
  %22 = load ptr, ptr %21, align 8
  %23 = load i32, ptr @proto_json, align 4
  %24 = call ptr @p_get_proto_data(ptr noundef %19, ptr noundef %22, i32 noundef %23, i32 noundef 0)
  store ptr %24, ptr %11, align 8
  %25 = load ptr, ptr %11, align 8
  %26 = icmp ne ptr %25, null
  br i1 %26, label %27, label %33

27:                                               ; preds = %5
  %28 = load ptr, ptr %8, align 8
  %29 = getelementptr inbounds nuw %struct._asn1_ctx_t, ptr %28, i32 0, i32 3
  %30 = load ptr, ptr %29, align 8
  %31 = getelementptr inbounds nuw %struct._packet_info, ptr %30, i32 0, i32 1
  %32 = load ptr, ptr %31, align 8
  call void @col_append_sep_str(ptr noundef %32, i32 noundef 25, ptr noundef null, ptr noundef @.str.885)
  br label %33

33:                                               ; preds = %27, %5
  call void @llvm.lifetime.start.p0(i64 8, ptr %12) #11
  call void @llvm.lifetime.start.p0(i64 8, ptr %13) #11
  %34 = load ptr, ptr %6, align 8
  %35 = load i32, ptr %7, align 4
  %36 = load ptr, ptr %8, align 8
  %37 = load ptr, ptr %9, align 8
  %38 = load i32, ptr %10, align 4
  %39 = call i32 @dissect_per_octet_string(ptr noundef %34, i32 noundef %35, ptr noundef %36, ptr noundef %37, i32 noundef %38, i32 noundef -1, i32 noundef -1, i1 noundef zeroext false, ptr noundef %12)
  store i32 %39, ptr %7, align 4
  %40 = load i8, ptr @ngap_dissect_container, align 1, !range !8, !noundef !9
  %41 = trunc i8 %40 to i1
  br i1 %41, label %42, label %108

42:                                               ; preds = %33
  %43 = load ptr, ptr %12, align 8
  %44 = icmp ne ptr %43, null
  br i1 %44, label %45, label %108

45:                                               ; preds = %42
  %46 = load ptr, ptr %12, align 8
  %47 = call i32 @tvb_reported_length(ptr noundef %46)
  %48 = icmp ugt i32 %47, 0
  br i1 %48, label %49, label %108

49:                                               ; preds = %45
  call void @llvm.lifetime.start.p0(i64 8, ptr %14) #11
  %50 = load ptr, ptr %8, align 8
  %51 = getelementptr inbounds nuw %struct._asn1_ctx_t, ptr %50, i32 0, i32 3
  %52 = load ptr, ptr %51, align 8
  %53 = call ptr @ngap_get_private_data(ptr noundef %52)
  store ptr %53, ptr %14, align 8
  %54 = load ptr, ptr %8, align 8
  %55 = getelementptr inbounds nuw %struct._asn1_ctx_t, ptr %54, i32 0, i32 3
  %56 = load ptr, ptr %55, align 8
  %57 = getelementptr inbounds nuw %struct._packet_info, ptr %56, i32 0, i32 1
  %58 = load ptr, ptr %57, align 8
  call void @col_set_writable(ptr noundef %58, i32 noundef 25, i1 noundef zeroext false)
  %59 = load ptr, ptr %8, align 8
  %60 = getelementptr inbounds nuw %struct._asn1_ctx_t, ptr %59, i32 0, i32 4
  %61 = load ptr, ptr %60, align 8
  %62 = load i32, ptr @ett_ngap_TargetToSource_TransparentContainer, align 4
  %63 = call ptr @proto_item_add_subtree(ptr noundef %61, i32 noundef %62)
  store ptr %63, ptr %13, align 8
  %64 = load ptr, ptr %14, align 8
  %65 = getelementptr inbounds nuw %struct.ngap_private_data, ptr %64, i32 0, i32 1
  %66 = load i32, ptr %65, align 8
  %67 = icmp eq i32 %66, 12
  br i1 %67, label %68, label %95

68:                                               ; preds = %49
  %69 = load ptr, ptr %14, align 8
  %70 = getelementptr inbounds nuw %struct.ngap_private_data, ptr %69, i32 0, i32 5
  %71 = load i32, ptr %70, align 8
  switch i32 %71, label %93 [
    i32 0, label %72
    i32 2, label %72
    i32 1, label %79
    i32 3, label %86
  ]

72:                                               ; preds = %68, %68
  %73 = load ptr, ptr %12, align 8
  %74 = load ptr, ptr %8, align 8
  %75 = getelementptr inbounds nuw %struct._asn1_ctx_t, ptr %74, i32 0, i32 3
  %76 = load ptr, ptr %75, align 8
  %77 = load ptr, ptr %13, align 8
  %78 = call i32 @dissect_ngap_TargetNGRANNode_ToSourceNGRANNode_TransparentContainer_PDU(ptr noundef %73, ptr noundef %76, ptr noundef %77, ptr noundef null)
  br label %94

79:                                               ; preds = %68
  %80 = load ptr, ptr %12, align 8
  %81 = load ptr, ptr %8, align 8
  %82 = getelementptr inbounds nuw %struct._asn1_ctx_t, ptr %81, i32 0, i32 3
  %83 = load ptr, ptr %82, align 8
  %84 = load ptr, ptr %13, align 8
  %85 = call i32 @dissect_s1ap_TargeteNB_ToSourceeNB_TransparentContainer_PDU(ptr noundef %80, ptr noundef %83, ptr noundef %84, ptr noundef null)
  br label %94

86:                                               ; preds = %68
  %87 = load ptr, ptr %12, align 8
  %88 = load ptr, ptr %8, align 8
  %89 = getelementptr inbounds nuw %struct._asn1_ctx_t, ptr %88, i32 0, i32 3
  %90 = load ptr, ptr %89, align 8
  %91 = load ptr, ptr %13, align 8
  %92 = call i32 @dissect_rrc_TargetRNC_ToSourceRNC_Container_PDU(ptr noundef %87, ptr noundef %90, ptr noundef %91, ptr noundef null)
  br label %94

93:                                               ; preds = %68
  br label %94

94:                                               ; preds = %93, %86, %79, %72
  br label %102

95:                                               ; preds = %49
  %96 = load ptr, ptr %12, align 8
  %97 = load ptr, ptr %8, align 8
  %98 = getelementptr inbounds nuw %struct._asn1_ctx_t, ptr %97, i32 0, i32 3
  %99 = load ptr, ptr %98, align 8
  %100 = load ptr, ptr %13, align 8
  %101 = call i32 @dissect_ngap_TargetNGRANNode_ToSourceNGRANNode_TransparentContainer_PDU(ptr noundef %96, ptr noundef %99, ptr noundef %100, ptr noundef null)
  br label %102

102:                                              ; preds = %95, %94
  %103 = load ptr, ptr %8, align 8
  %104 = getelementptr inbounds nuw %struct._asn1_ctx_t, ptr %103, i32 0, i32 3
  %105 = load ptr, ptr %104, align 8
  %106 = getelementptr inbounds nuw %struct._packet_info, ptr %105, i32 0, i32 1
  %107 = load ptr, ptr %106, align 8
  call void @col_set_writable(ptr noundef %107, i32 noundef 25, i1 noundef zeroext true)
  call void @llvm.lifetime.end.p0(i64 8, ptr %14) #11
  br label %108

108:                                              ; preds = %102, %45, %42, %33
  %109 = load i32, ptr %7, align 4
  call void @llvm.lifetime.end.p0(i64 8, ptr %13) #11
  call void @llvm.lifetime.end.p0(i64 8, ptr %12) #11
  call void @llvm.lifetime.end.p0(i64 8, ptr %11) #11
  ret i32 %109
}

; Function Attrs: null_pointer_is_valid sspstrong uwtable
define internal i32 @dissect_TargetToSource_TransparentContainer_PDU(ptr noundef %0, ptr noundef %1, ptr noundef %2, ptr noundef %3) #0 {
  %5 = alloca ptr, align 8
  %6 = alloca ptr, align 8
  %7 = alloca ptr, align 8
  %8 = alloca ptr, align 8
  %9 = alloca i32, align 4
  %10 = alloca %struct._asn1_ctx_t, align 8
  store ptr %0, ptr %5, align 8
  store ptr %1, ptr %6, align 8
  store ptr %2, ptr %7, align 8
  store ptr %3, ptr %8, align 8
  call void @llvm.lifetime.start.p0(i64 4, ptr %9) #11
  store i32 0, ptr %9, align 4
  call void @llvm.lifetime.start.p0(i64 208, ptr %10) #11
  %11 = load ptr, ptr %6, align 8
  call void @asn1_ctx_init(ptr noundef %10, i32 noundef 1, i1 noundef zeroext true, ptr noundef %11)
  %12 = load ptr, ptr %5, align 8
  %13 = load i32, ptr %9, align 4
  %14 = load ptr, ptr %7, align 8
  %15 = load i32, ptr @hf_ngap_TargetToSource_TransparentContainer_PDU, align 4
  %16 = call i32 @dissect_ngap_TargetToSource_TransparentContainer(ptr noundef %12, i32 noundef %13, ptr noundef %10, ptr noundef %14, i32 noundef %15)
  store i32 %16, ptr %9, align 4
  %17 = load i32, ptr %9, align 4
  %18 = add i32 %17, 7
  store i32 %18, ptr %9, align 4
  %19 = load i32, ptr %9, align 4
  %20 = ashr i32 %19, 3
  store i32 %20, ptr %9, align 4
  %21 = load i32, ptr %9, align 4
  call void @llvm.lifetime.end.p0(i64 208, ptr %10) #11
  call void @llvm.lifetime.end.p0(i64 4, ptr %9) #11
  ret i32 %21
}