; Function Attrs: null_pointer_is_valid sspstrong uwtable
define internal range(i32 -268435456, 268435456) i32 @dissect_TargetToSource_TransparentContainer_PDU(ptr noundef %0, ptr noundef %1, ptr noundef %2, ptr readnone captures(none) %3) #0 {
  %5 = alloca ptr, align 8
  %6 = alloca %struct._asn1_ctx_t, align 8
  call void @llvm.lifetime.start.p0(i64 208, ptr nonnull %6) #12
  call void @asn1_ctx_init(ptr noundef nonnull %6, i32 noundef 1, i1 noundef zeroext true, ptr noundef %1)
  %7 = load i32, ptr @hf_ngap_TargetToSource_TransparentContainer_PDU, align 4
  %8 = getelementptr inbounds nuw i8, ptr %6, i64 16
  %9 = load ptr, ptr %8, align 8
  %10 = getelementptr inbounds nuw i8, ptr %9, i64 408
  %11 = load ptr, ptr %10, align 8
  %12 = load i32, ptr @proto_json, align 4
  %13 = call ptr @p_get_proto_data(ptr noundef %11, ptr noundef %9, i32 noundef %12, i32 noundef 0)
  %.not.i = icmp eq ptr %13, null
  br i1 %.not.i, label %18, label %14

14:                                               ; preds = %4
  %15 = load ptr, ptr %8, align 8
  %16 = getelementptr inbounds nuw i8, ptr %15, i64 8
  %17 = load ptr, ptr %16, align 8
  call void @col_append_sep_str(ptr noundef %17, i32 noundef 25, ptr noundef null, ptr noundef nonnull @.str.885)
  br label %18

18:                                               ; preds = %14, %4
  call void @llvm.lifetime.start.p0(i64 8, ptr nonnull %5) #12
  %19 = call i32 @dissect_per_octet_string(ptr noundef %0, i32 noundef 0, ptr noundef nonnull %6, ptr noundef %2, i32 noundef %7, i32 noundef -1, i32 noundef -1, i1 noundef zeroext false, ptr noundef nonnull %5)
  %20 = load i8, ptr @ngap_dissect_container, align 1, !range !6, !noundef !7
  %21 = trunc nuw i8 %20 to i1
  %22 = load ptr, ptr %5, align 8
  %23 = icmp ne ptr %22, null
  %or.cond.i = select i1 %21, i1 %23, i1 false
  br i1 %or.cond.i, label %24, label %dissect_ngap_TargetToSource_TransparentContainer.exit

24:                                               ; preds = %18
  %25 = call i32 @tvb_reported_length(ptr noundef nonnull %22)
  %.not24.i = icmp eq i32 %25, 0
  br i1 %.not24.i, label %dissect_ngap_TargetToSource_TransparentContainer.exit, label %26

26:                                               ; preds = %24
  %27 = load ptr, ptr %8, align 8
  %28 = getelementptr inbounds nuw i8, ptr %27, i64 408
  %29 = load ptr, ptr %28, align 8
  %30 = load i32, ptr @proto_ngap, align 4
  %31 = call ptr @p_get_proto_data(ptr noundef %29, ptr noundef %27, i32 noundef %30, i32 noundef 0)
  %.not.i.i = icmp eq ptr %31, null
  br i1 %.not.i.i, label %32, label %ngap_get_private_data.exit.i

32:                                               ; preds = %26
  %33 = load ptr, ptr %28, align 8
  %34 = call noalias dereferenceable_or_null(72) ptr @wmem_alloc0(ptr noundef %33, i64 noundef 72) #13
  %35 = getelementptr inbounds nuw i8, ptr %34, i64 24
  store i32 -1, ptr %35, align 8
  %36 = getelementptr inbounds nuw i8, ptr %34, i64 56
  store i8 -1, ptr %36, align 8
  %37 = load ptr, ptr %28, align 8
  %38 = load i32, ptr @proto_ngap, align 4
  call void @p_add_proto_data(ptr noundef %37, ptr noundef %27, i32 noundef %38, i32 noundef 0, ptr noundef %34)
  br label %ngap_get_private_data.exit.i

ngap_get_private_data.exit.i:                     ; preds = %32, %26
  %.0.i.i = phi ptr [ %31, %26 ], [ %34, %32 ]
  %39 = load ptr, ptr %8, align 8
  %40 = getelementptr inbounds nuw i8, ptr %39, i64 8
  %41 = load ptr, ptr %40, align 8
  call void @col_set_writable(ptr noundef %41, i32 noundef 25, i1 noundef zeroext false)
  %42 = getelementptr inbounds nuw i8, ptr %6, i64 24
  %43 = load ptr, ptr %42, align 8
  %44 = load i32, ptr @ett_ngap_TargetToSource_TransparentContainer, align 4
  %45 = call ptr @proto_item_add_subtree(ptr noundef %43, i32 noundef %44)
  %46 = getelementptr inbounds nuw i8, ptr %.0.i.i, i64 8
  %47 = load i32, ptr %46, align 8
  %48 = icmp eq i32 %47, 12
  br i1 %48, label %49, label %64

49:                                               ; preds = %ngap_get_private_data.exit.i
  %50 = getelementptr inbounds nuw i8, ptr %.0.i.i, i64 24
  %51 = load i32, ptr %50, align 8
  switch i32 %51, label %68 [
    i32 0, label %52
    i32 2, label %52
    i32 1, label %56
    i32 3, label %60
  ]

52:                                               ; preds = %49, %49
  %53 = load ptr, ptr %5, align 8
  %54 = load ptr, ptr %8, align 8
  %55 = call i32 @dissect_ngap_TargetNGRANNode_ToSourceNGRANNode_TransparentContainer_PDU(ptr noundef %53, ptr noundef %54, ptr noundef %45, ptr poison)
  br label %68

56:                                               ; preds = %49
  %57 = load ptr, ptr %5, align 8
  %58 = load ptr, ptr %8, align 8
  %59 = call i32 @dissect_s1ap_TargeteNB_ToSourceeNB_TransparentContainer_PDU(ptr noundef %57, ptr noundef %58, ptr noundef %45, ptr noundef null)
  br label %68

60:                                               ; preds = %49
  %61 = load ptr, ptr %5, align 8
  %62 = load ptr, ptr %8, align 8
  %63 = call i32 @dissect_rrc_TargetRNC_ToSourceRNC_Container_PDU(ptr noundef %61, ptr noundef %62, ptr noundef %45, ptr noundef null)
  br label %68

64:                                               ; preds = %ngap_get_private_data.exit.i
  %65 = load ptr, ptr %5, align 8
  %66 = load ptr, ptr %8, align 8
  %67 = call i32 @dissect_ngap_TargetNGRANNode_ToSourceNGRANNode_TransparentContainer_PDU(ptr noundef %65, ptr noundef %66, ptr noundef %45, ptr poison)
  br label %68

68:                                               ; preds = %64, %60, %56, %52, %49
  %69 = load ptr, ptr %8, align 8
  %70 = getelementptr inbounds nuw i8, ptr %69, i64 8
  %71 = load ptr, ptr %70, align 8
  call void @col_set_writable(ptr noundef %71, i32 noundef 25, i1 noundef zeroext true)
  br label %dissect_ngap_TargetToSource_TransparentContainer.exit

dissect_ngap_TargetToSource_TransparentContainer.exit: ; preds = %18, %24, %68
  call void @llvm.lifetime.end.p0(i64 8, ptr nonnull %5) #12
  %72 = add i32 %19, 7
  %73 = ashr i32 %72, 3
  call void @llvm.lifetime.end.p0(i64 208, ptr nonnull %6) #12
  ret i32 %73
}